target datalayout = "e-m:e-p270:32:32-p271:32:32-p272:64:64-i64:64-i128:128-f80:128-n8:16:32:64-S128"
target triple = "x86_64-pc-linux-gnu"

%struct.jpeg_common_struct = type { ptr, ptr, ptr, ptr, i32, i32 }
%struct.jpeg_memory_mgr = type { ptr, ptr, ptr, ptr, ptr, ptr, ptr, ptr, ptr, ptr, ptr, i64, i64 }
%struct.jpeg_error_mgr = type { ptr, ptr, ptr, ptr, ptr, i32, %union.anon, i32, i64, ptr, i32, ptr, i32, i32 }
%union.anon = type { [8 x i32], [48 x i8] }

; Function Attrs: nounwind uwtable
define ptr @jpeg_get_small(ptr noundef %0, i64 noundef %1) #0 {
  %3 = alloca ptr, align 8
  %4 = alloca i64, align 8
  store ptr %0, ptr %3, align 8, !tbaa !3
  store i64 %1, ptr %4, align 8, !tbaa !8
  %5 = load i64, ptr %4, align 8, !tbaa !8
  %6 = call noalias ptr @malloc(i64 noundef %5) #3
  ret ptr %6
}

; Function Attrs: nounwind allocsize(0)
declare noalias ptr @malloc(i64 noundef) #1

; Function Attrs: nounwind uwtable
define void @jpeg_free_small(ptr noundef %0, ptr noundef %1, i64 noundef %2) #0 {
  %4 = alloca ptr, align 8
  %5 = alloca ptr, align 8
  %6 = alloca i64, align 8
  store ptr %0, ptr %4, align 8, !tbaa !3
  store ptr %1, ptr %5, align 8, !tbaa !10
  store i64 %2, ptr %6, align 8, !tbaa !8
  %7 = load ptr, ptr %5, align 8, !tbaa !10
  call void @free(ptr noundef %7) #4
  ret void
}

; Function Attrs: nounwind
declare void @free(ptr noundef) #2

; Function Attrs: nounwind uwtable
define ptr @jpeg_get_large(ptr noundef %0, i64 noundef %1) #0 {
  %3 = alloca ptr, align 8
  %4 = alloca i64, align 8
  store ptr %0, ptr %3, align 8, !tbaa !3
  store i64 %1, ptr %4, align 8, !tbaa !8
  %5 = load i64, ptr %4, align 8, !tbaa !8
  %6 = call noalias ptr @malloc(i64 noundef %5) #3
  ret ptr %6
}

; Function Attrs: nounwind uwtable
define void @jpeg_free_large(ptr noundef %0, ptr noundef %1, i64 noundef %2) #0 {
  %4 = alloca ptr, align 8
  %5 = alloca ptr, align 8
  %6 = alloca i64, align 8
  store ptr %0, ptr %4, align 8, !tbaa !3
  store ptr %1, ptr %5, align 8, !tbaa !10
  store i64 %2, ptr %6, align 8, !tbaa !8
  %7 = load ptr, ptr %5, align 8, !tbaa !10
  call void @free(ptr noundef %7) #4
  ret void
}

; Function Attrs: nounwind uwtable
define i64 @jpeg_mem_available(ptr noundef %0, i64 noundef %1, i64 noundef %2, i64 noundef %3) #0 {
  %5 = alloca i64, align 8
  %6 = alloca ptr, align 8
  %7 = alloca i64, align 8
  %8 = alloca i64, align 8
  %9 = alloca i64, align 8
  store ptr %0, ptr %6, align 8, !tbaa !3
  store i64 %1, ptr %7, align 8, !tbaa !8
  store i64 %2, ptr %8, align 8, !tbaa !8
  store i64 %3, ptr %9, align 8, !tbaa !8
  %10 = load ptr, ptr %6, align 8, !tbaa !3
  %11 = getelementptr inbounds nuw %struct.jpeg_common_struct, ptr %10, i32 0, i32 1
  %12 = load ptr, ptr %11, align 8, !tbaa !11
  %13 = getelementptr inbounds nuw %struct.jpeg_memory_mgr, ptr %12, i32 0, i32 11
  %14 = load i64, ptr %13, align 8, !tbaa !17
  %15 = icmp ne i64 %14, 0
  br i1 %15, label %16, label %33

16:                                               ; preds = %4
  %17 = load ptr, ptr %6, align 8, !tbaa !3
  %18 = getelementptr inbounds nuw %struct.jpeg_common_struct, ptr %17, i32 0, i32 1
  %19 = load ptr, ptr %18, align 8, !tbaa !11
  %20 = getelementptr inbounds nuw %struct.jpeg_memory_mgr, ptr %19, i32 0, i32 11
  %21 = load i64, ptr %20, align 8, !tbaa !17
  %22 = load i64, ptr %9, align 8, !tbaa !8
  %23 = icmp ugt i64 %21, %22
  br i1 %23, label %24, label %32

24:                                               ; preds = %16
  %25 = load ptr, ptr %6, align 8, !tbaa !3
  %26 = getelementptr inbounds nuw %struct.jpeg_common_struct, ptr %25, i32 0, i32 1
  %27 = load ptr, ptr %26, align 8, !tbaa !11
  %28 = getelementptr inbounds nuw %struct.jpeg_memory_mgr, ptr %27, i32 0, i32 11
  %29 = load i64, ptr %28, align 8, !tbaa !17
  %30 = load i64, ptr %9, align 8, !tbaa !8
  %31 = sub i64 %29, %30
  store i64 %31, ptr %5, align 8
  br label %35

32:                                               ; preds = %16
  store i64 0, ptr %5, align 8
  br label %35

33:                                               ; preds = %4
  %34 = load i64, ptr %8, align 8, !tbaa !8
  store i64 %34, ptr %5, align 8
  br label %35

35:                                               ; preds = %33, %32, %24
  %36 = load i64, ptr %5, align 8
  ret i64 %36
}

; Function Attrs: nounwind uwtable
define void @jpeg_open_backing_store(ptr noundef %0, ptr noundef %1, i64 noundef %2) #0 {
  %4 = alloca ptr, align 8
  %5 = alloca ptr, align 8
  %6 = alloca i64, align 8
  store ptr %0, ptr %4, align 8, !tbaa !3
  store ptr %1, ptr %5, align 8, !tbaa !19
  store i64 %2, ptr %6, align 8, !tbaa !8
  %7 = load ptr, ptr %4, align 8, !tbaa !3
  %8 = getelementptr inbounds nuw %struct.jpeg_common_struct, ptr %7, i32 0, i32 0
  %9 = load ptr, ptr %8, align 8, !tbaa !21
  %10 = getelementptr inbounds nuw %struct.jpeg_error_mgr, ptr %9, i32 0, i32 5
  store i32 49, ptr %10, align 8, !tbaa !22
  %11 = load ptr, ptr %4, align 8, !tbaa !3
  %12 = getelementptr inbounds nuw %struct.jpeg_common_struct, ptr %11, i32 0, i32 0
  %13 = load ptr, ptr %12, align 8, !tbaa !21
  %14 = getelementptr inbounds nuw %struct.jpeg_error_mgr, ptr %13, i32 0, i32 0
  %15 = load ptr, ptr %14, align 8, !tbaa !25
  %16 = load ptr, ptr %4, align 8, !tbaa !3
  call void %15(ptr noundef %16)
  ret void
}

; Function Attrs: nounwind uwtable
define i64 @jpeg_mem_init(ptr noundef %0) #0 {
  %2 = alloca ptr, align 8
  store ptr %0, ptr %2, align 8, !tbaa !3
  ret i64 0
}

; Function Attrs: nounwind uwtable
define void @jpeg_mem_term(ptr noundef %0) #0 {
  %2 = alloca ptr, align 8
  store ptr %0, ptr %2, align 8, !tbaa !3
  ret void
}


!llvm.module.flags = !{!0, !1, !2}

!0 = !{i32 1, !"wchar_size", i32 4}
!1 = !{i32 8, !"PIC Level", i32 2}
!2 = !{i32 7, !"uwtable", i32 2}
!3 = !{!4, !4, i64 0}
!4 = !{!"p1 _ZTS18jpeg_common_struct", !5, i64 0}
!5 = !{!"any pointer", !6, i64 0}
!6 = !{!"omnipotent char", !7, i64 0}
!7 = !{!"Simple C/C++ TBAA"}
!8 = !{!9, !9, i64 0}
!9 = !{!"long", !6, i64 0}
!10 = !{!5, !5, i64 0}
!11 = !{!12, !14, i64 8}
!12 = !{!"jpeg_common_struct", !13, i64 0, !14, i64 8, !15, i64 16, !5, i64 24, !16, i64 32, !16, i64 36}
!13 = !{!"p1 _ZTS14jpeg_error_mgr", !5, i64 0}
!14 = !{!"p1 _ZTS15jpeg_memory_mgr", !5, i64 0}
!15 = !{!"p1 _ZTS17jpeg_progress_mgr", !5, i64 0}
!16 = !{!"int", !6, i64 0}
!17 = !{!18, !9, i64 88}
!18 = !{!"jpeg_memory_mgr", !5, i64 0, !5, i64 8, !5, i64 16, !5, i64 24, !5, i64 32, !5, i64 40, !5, i64 48, !5, i64 56, !5, i64 64, !5, i64 72, !5, i64 80, !9, i64 88, !9, i64 96}
!19 = !{!20, !20, i64 0}
!20 = !{!"p1 _ZTS20backing_store_struct", !5, i64 0}
!21 = !{!12, !13, i64 0}
!22 = !{!23, !16, i64 40}
!23 = !{!"jpeg_error_mgr", !5, i64 0, !5, i64 8, !5, i64 16, !5, i64 24, !5, i64 32, !16, i64 40, !6, i64 44, !16, i64 124, !9, i64 128, !24, i64 136, !16, i64 144, !24, i64 152, !16, i64 160, !16, i64 164}
!24 = !{!"p2 omnipotent char", !5, i64 0}
!25 = !{!23, !5, i64 0}
