; ModuleID = 'bench/libjpeg-turbo/original/jmemnobs.ll'
source_filename = "bench/libjpeg-turbo/original/jmemnobs.ll"
target datalayout = "e-m:e-p270:32:32-p271:32:32-p272:64:64-i64:64-i128:128-f80:128-n8:16:32:64-S128"
target triple = "x86_64-pc-linux-gnu"

; Function Attrs: mustprogress nofree nounwind willreturn memory(inaccessiblemem: readwrite) uwtable
define noalias noundef ptr @jpeg_get_small(ptr noundef readnone captures(none) %0, i64 noundef %1) local_unnamed_addr #0 {
  %3 = tail call noalias ptr @malloc(i64 noundef %1) #8
  ret ptr %3
}

; Function Attrs: mustprogress nofree nounwind willreturn allockind("alloc,uninitialized") allocsize(0) memory(inaccessiblemem: readwrite)
declare noalias noundef ptr @malloc(i64 noundef) local_unnamed_addr #1

; Function Attrs: mustprogress nounwind willreturn memory(argmem: readwrite, inaccessiblemem: readwrite) uwtable
define void @jpeg_free_small(ptr noundef readnone captures(none) %0, ptr noundef captures(none) %1, i64 noundef %2) local_unnamed_addr #2 {
  tail call void @free(ptr noundef %1) #9
  ret void
}

; Function Attrs: mustprogress nounwind willreturn allockind("free") memory(argmem: readwrite, inaccessiblemem: readwrite)
declare void @free(ptr allocptr noundef captures(none)) local_unnamed_addr #3

; Function Attrs: mustprogress nofree nounwind willreturn memory(inaccessiblemem: readwrite) uwtable
define noalias noundef ptr @jpeg_get_large(ptr noundef readnone captures(none) %0, i64 noundef %1) local_unnamed_addr #0 {
  %3 = tail call noalias ptr @malloc(i64 noundef %1) #8
  ret ptr %3
}

; Function Attrs: mustprogress nounwind willreturn memory(argmem: readwrite, inaccessiblemem: readwrite) uwtable
define void @jpeg_free_large(ptr noundef readnone captures(none) %0, ptr noundef captures(none) %1, i64 noundef %2) local_unnamed_addr #2 {
  tail call void @free(ptr noundef %1) #9
  ret void
}

; Function Attrs: mustprogress nofree norecurse nosync nounwind willreturn memory(read, inaccessiblemem: none) uwtable
define i64 @jpeg_mem_available(ptr noundef readonly captures(none) %0, i64 noundef %1, i64 noundef %2, i64 noundef %3) local_unnamed_addr #4 {
  %5 = getelementptr inbounds nuw i8, ptr %0, i64 8
  %6 = load ptr, ptr %5, align 8, !tbaa !3
  %7 = getelementptr inbounds nuw i8, ptr %6, i64 88
  %8 = load i64, ptr %7, align 8, !tbaa !12
  %.not = icmp eq i64 %8, 0
  %spec.select = tail call i64 @llvm.usub.sat.i64(i64 %8, i64 %3)
  %.0 = select i1 %.not, i64 %2, i64 %spec.select
  ret i64 %.0
}

; Function Attrs: nounwind uwtable
define void @jpeg_open_backing_store(ptr noundef %0, ptr noundef readnone captures(none) %1, i64 noundef %2) local_unnamed_addr #5 {
  %4 = load ptr, ptr %0, align 8, !tbaa !15
  %5 = getelementptr inbounds nuw i8, ptr %4, i64 40
  store i32 49, ptr %5, align 8, !tbaa !16
  %6 = load ptr, ptr %4, align 8, !tbaa !19
  tail call void %6(ptr noundef nonnull %0) #9
  ret void
}

; Function Attrs: mustprogress nofree norecurse nosync nounwind willreturn memory(none) uwtable
define noundef i64 @jpeg_mem_init(ptr noundef readnone captures(none) %0) local_unnamed_addr #6 {
  ret i64 0
}

; Function Attrs: mustprogress nofree norecurse nosync nounwind willreturn memory(none) uwtable
define void @jpeg_mem_term(ptr noundef readnone captures(none) %0) local_unnamed_addr #6 {
  ret void
}

; Function Attrs: nocallback nofree nosync nounwind speculatable willreturn memory(none)
declare i64 @llvm.usub.sat.i64(i64, i64) #7


!llvm.module.flags = !{!0, !1, !2}

!0 = !{i32 1, !"wchar_size", i32 4}
!1 = !{i32 8, !"PIC Level", i32 2}
!2 = !{i32 7, !"uwtable", i32 2}
!3 = !{!4, !9, i64 8}
!4 = !{!"jpeg_common_struct", !5, i64 0, !9, i64 8, !10, i64 16, !6, i64 24, !11, i64 32, !11, i64 36}
!5 = !{!"p1 _ZTS14jpeg_error_mgr", !6, i64 0}
!6 = !{!"any pointer", !7, i64 0}
!7 = !{!"omnipotent char", !8, i64 0}
!8 = !{!"Simple C/C++ TBAA"}
!9 = !{!"p1 _ZTS15jpeg_memory_mgr", !6, i64 0}
!10 = !{!"p1 _ZTS17jpeg_progress_mgr", !6, i64 0}
!11 = !{!"int", !7, i64 0}
!12 = !{!13, !14, i64 88}
!13 = !{!"jpeg_memory_mgr", !6, i64 0, !6, i64 8, !6, i64 16, !6, i64 24, !6, i64 32, !6, i64 40, !6, i64 48, !6, i64 56, !6, i64 64, !6, i64 72, !6, i64 80, !14, i64 88, !14, i64 96}
!14 = !{!"long", !7, i64 0}
!15 = !{!4, !5, i64 0}
!16 = !{!17, !11, i64 40}
!17 = !{!"jpeg_error_mgr", !6, i64 0, !6, i64 8, !6, i64 16, !6, i64 24, !6, i64 32, !11, i64 40, !7, i64 44, !11, i64 124, !14, i64 128, !18, i64 136, !11, i64 144, !18, i64 152, !11, i64 160, !11, i64 164}
!18 = !{!"p2 omnipotent char", !6, i64 0}
!19 = !{!17, !6, i64 0}
